target datalayout = "e-m:e-p270:32:32-p271:32:32-p272:64:64-i64:64-i128:128-f80:128-n8:16:32:64-S128"
target triple = "x86_64-pc-linux-gnu"

%struct.URLGlob = type { [100 x %struct.URLPattern], i64, i64, ptr, i8, ptr, i64 }
%struct.URLPattern = type { i32, i32, %union.anon }
%union.anon = type { %struct.anon.1 }
%struct.anon.1 = type { i64, i64, i32, i64, i64 }
%struct.anon = type { ptr, i64, i32 }

; Function Attrs: nounwind uwtable
define dso_local void @glob_cleanup(ptr noundef %0) #0 {
  %2 = alloca ptr, align 8
  %3 = alloca i64, align 8
  %4 = alloca i64, align 8
  %5 = alloca ptr, align 8
  %6 = alloca i32, align 4
  store ptr %0, ptr %2, align 8, !tbaa !4
  call void @llvm.lifetime.start.p0(i64 8, ptr %3) #10
  call void @llvm.lifetime.start.p0(i64 8, ptr %4) #10
  call void @llvm.lifetime.start.p0(i64 8, ptr %5) #10
  %7 = load ptr, ptr %2, align 8, !tbaa !4
  %8 = load ptr, ptr %7, align 8, !tbaa !17
  store ptr %8, ptr %5, align 8, !tbaa !17
  %9 = load ptr, ptr %5, align 8, !tbaa !17
  %10 = icmp ne ptr %9, null
  br i1 %10, label %12, label %11

11:                                               ; preds = %1
  store i32 1, ptr %6, align 4
  br label %109

12:                                               ; preds = %1
  store i64 0, ptr %3, align 8, !tbaa !15
  br label %13

13:                                               ; preds = %92, %12
  %14 = load i64, ptr %3, align 8, !tbaa !15
  %15 = load ptr, ptr %5, align 8, !tbaa !17
  %16 = getelementptr inbounds nuw %struct.URLGlob, ptr %15, i32 0, i32 1
  %17 = load i64, ptr %16, align 8, !tbaa !29
  %18 = icmp ult i64 %14, %17
  br i1 %18, label %19, label %95

19:                                               ; preds = %13
  %20 = load ptr, ptr %5, align 8, !tbaa !17
  %21 = getelementptr inbounds nuw %struct.URLGlob, ptr %20, i32 0, i32 0
  %22 = load i64, ptr %3, align 8, !tbaa !15
  %23 = getelementptr inbounds nuw [100 x %struct.URLPattern], ptr %21, i64 0, i64 %22
  %24 = getelementptr inbounds nuw %struct.URLPattern, ptr %23, i32 0, i32 0
  %25 = load i32, ptr %24, align 8, !tbaa !31
  %26 = icmp eq i32 %25, 1
  br i1 %26, label %27, label %91

27:                                               ; preds = %19
  %28 = load ptr, ptr %5, align 8, !tbaa !17
  %29 = getelementptr inbounds nuw %struct.URLGlob, ptr %28, i32 0, i32 0
  %30 = load i64, ptr %3, align 8, !tbaa !15
  %31 = getelementptr inbounds nuw [100 x %struct.URLPattern], ptr %29, i64 0, i64 %30
  %32 = getelementptr inbounds nuw %struct.URLPattern, ptr %31, i32 0, i32 2
  %33 = getelementptr inbounds nuw %struct.anon, ptr %32, i32 0, i32 0
  %34 = load ptr, ptr %33, align 8, !tbaa !19
  %35 = icmp ne ptr %34, null
  br i1 %35, label %36, label %91

36:                                               ; preds = %27
  %37 = load ptr, ptr %5, align 8, !tbaa !17
  %38 = getelementptr inbounds nuw %struct.URLGlob, ptr %37, i32 0, i32 0
  %39 = load i64, ptr %3, align 8, !tbaa !15
  %40 = getelementptr inbounds nuw [100 x %struct.URLPattern], ptr %38, i64 0, i64 %39
  %41 = getelementptr inbounds nuw %struct.URLPattern, ptr %40, i32 0, i32 2
  %42 = getelementptr inbounds nuw %struct.anon, ptr %41, i32 0, i32 1
  %43 = load i64, ptr %42, align 8, !tbaa !19
  %44 = sub nsw i64 %43, 1
  store i64 %44, ptr %4, align 8, !tbaa !15
  br label %45

45:                                               ; preds = %71, %36
  %46 = load i64, ptr %4, align 8, !tbaa !15
  %47 = icmp sge i64 %46, 0
  br i1 %47, label %48, label %74

48:                                               ; preds = %45
  br label %49

49:                                               ; preds = %48
  %50 = load ptr, ptr %5, align 8, !tbaa !17
  %51 = getelementptr inbounds nuw %struct.URLGlob, ptr %50, i32 0, i32 0
  %52 = load i64, ptr %3, align 8, !tbaa !15
  %53 = getelementptr inbounds nuw [100 x %struct.URLPattern], ptr %51, i64 0, i64 %52
  %54 = getelementptr inbounds nuw %struct.URLPattern, ptr %53, i32 0, i32 2
  %55 = getelementptr inbounds nuw %struct.anon, ptr %54, i32 0, i32 0
  %56 = load ptr, ptr %55, align 8, !tbaa !19
  %57 = load i64, ptr %4, align 8, !tbaa !15
  %58 = getelementptr inbounds ptr, ptr %56, i64 %57
  %59 = load ptr, ptr %58, align 8, !tbaa !9
  call void @free(ptr noundef %59) #10
  %60 = load ptr, ptr %5, align 8, !tbaa !17
  %61 = getelementptr inbounds nuw %struct.URLGlob, ptr %60, i32 0, i32 0
  %62 = load i64, ptr %3, align 8, !tbaa !15
  %63 = getelementptr inbounds nuw [100 x %struct.URLPattern], ptr %61, i64 0, i64 %62
  %64 = getelementptr inbounds nuw %struct.URLPattern, ptr %63, i32 0, i32 2
  %65 = getelementptr inbounds nuw %struct.anon, ptr %64, i32 0, i32 0
  %66 = load ptr, ptr %65, align 8, !tbaa !19
  %67 = load i64, ptr %4, align 8, !tbaa !15
  %68 = getelementptr inbounds ptr, ptr %66, i64 %67
  store ptr null, ptr %68, align 8, !tbaa !9
  br label %69

69:                                               ; preds = %49
  br label %70

70:                                               ; preds = %69
  br label %71

71:                                               ; preds = %70
  %72 = load i64, ptr %4, align 8, !tbaa !15
  %73 = add nsw i64 %72, -1
  store i64 %73, ptr %4, align 8, !tbaa !15
  br label %45, !llvm.loop !33

74:                                               ; preds = %45
  br label %75

75:                                               ; preds = %74
  %76 = load ptr, ptr %5, align 8, !tbaa !17
  %77 = getelementptr inbounds nuw %struct.URLGlob, ptr %76, i32 0, i32 0
  %78 = load i64, ptr %3, align 8, !tbaa !15
  %79 = getelementptr inbounds nuw [100 x %struct.URLPattern], ptr %77, i64 0, i64 %78
  %80 = getelementptr inbounds nuw %struct.URLPattern, ptr %79, i32 0, i32 2
  %81 = getelementptr inbounds nuw %struct.anon, ptr %80, i32 0, i32 0
  %82 = load ptr, ptr %81, align 8, !tbaa !19
  call void @free(ptr noundef %82) #10
  %83 = load ptr, ptr %5, align 8, !tbaa !17
  %84 = getelementptr inbounds nuw %struct.URLGlob, ptr %83, i32 0, i32 0
  %85 = load i64, ptr %3, align 8, !tbaa !15
  %86 = getelementptr inbounds nuw [100 x %struct.URLPattern], ptr %84, i64 0, i64 %85
  %87 = getelementptr inbounds nuw %struct.URLPattern, ptr %86, i32 0, i32 2
  %88 = getelementptr inbounds nuw %struct.anon, ptr %87, i32 0, i32 0
  store ptr null, ptr %88, align 8, !tbaa !19
  br label %89

89:                                               ; preds = %75
  br label %90

90:                                               ; preds = %89
  br label %91

91:                                               ; preds = %90, %27, %19
  br label %92

92:                                               ; preds = %91
  %93 = load i64, ptr %3, align 8, !tbaa !15
  %94 = add i64 %93, 1
  store i64 %94, ptr %3, align 8, !tbaa !15
  br label %13, !llvm.loop !34

95:                                               ; preds = %13
  br label %96

96:                                               ; preds = %95
  %97 = load ptr, ptr %5, align 8, !tbaa !17
  %98 = getelementptr inbounds nuw %struct.URLGlob, ptr %97, i32 0, i32 3
  %99 = load ptr, ptr %98, align 8, !tbaa !22
  call void @free(ptr noundef %99) #10
  %100 = load ptr, ptr %5, align 8, !tbaa !17
  %101 = getelementptr inbounds nuw %struct.URLGlob, ptr %100, i32 0, i32 3
  store ptr null, ptr %101, align 8, !tbaa !22
  br label %102

102:                                              ; preds = %96
  br label %103

103:                                              ; preds = %102
  br label %104

104:                                              ; preds = %103
  %105 = load ptr, ptr %5, align 8, !tbaa !17
  call void @free(ptr noundef %105) #10
  store ptr null, ptr %5, align 8, !tbaa !17
  br label %106

106:                                              ; preds = %104
  br label %107

107:                                              ; preds = %106
  %108 = load ptr, ptr %2, align 8, !tbaa !4
  store ptr null, ptr %108, align 8, !tbaa !17
  store i32 0, ptr %6, align 4
  br label %109

109:                                              ; preds = %107, %11
  call void @llvm.lifetime.end.p0(i64 8, ptr %5) #10
  call void @llvm.lifetime.end.p0(i64 8, ptr %4) #10
  call void @llvm.lifetime.end.p0(i64 8, ptr %3) #10
  %110 = load i32, ptr %6, align 4
  switch i32 %110, label %112 [
    i32 0, label %111
    i32 1, label %111
  ]

111:                                              ; preds = %109, %109
  ret void

112:                                              ; preds = %109
  unreachable
}