; Function Attrs: nounwind uwtable
define dso_local void @glob_cleanup(ptr noundef captures(none) %0) local_unnamed_addr #0 {
  %2 = load ptr, ptr %0, align 8, !tbaa !4
  %.not = icmp eq ptr %2, null
  br i1 %.not, label %29, label %.preheader

.preheader:                                       ; preds = %1
  %3 = getelementptr inbounds nuw i8, ptr %2, i64 4800
  %4 = load i64, ptr %3, align 8, !tbaa !17
  %.not33 = icmp eq i64 %4, 0
  br i1 %.not33, label %._crit_edge32, label %.lr.ph31

.lr.ph31:                                         ; preds = %.preheader, %23
  %5 = phi i64 [ %24, %23 ], [ %4, %.preheader ]
  %.02630 = phi i64 [ %25, %23 ], [ 0, %.preheader ]
  %6 = getelementptr inbounds nuw [100 x %struct.URLPattern], ptr %2, i64 0, i64 %.02630
  %7 = load i32, ptr %6, align 8, !tbaa !18
  %8 = icmp eq i32 %7, 1
  br i1 %8, label %9, label %23

9:                                                ; preds = %.lr.ph31
  %10 = getelementptr inbounds nuw i8, ptr %6, i64 8
  %11 = load ptr, ptr %10, align 8, !tbaa !9
  %.not28 = icmp eq ptr %11, null
  br i1 %.not28, label %23, label %12

12:                                               ; preds = %9
  %13 = getelementptr inbounds nuw i8, ptr %6, i64 16
  %14 = load i64, ptr %13, align 8, !tbaa !9
  %15 = icmp sgt i64 %14, 0
  br i1 %15, label %.lr.ph, label %._crit_edge

.lr.ph:                                           ; preds = %12, %.lr.ph
  %.0.in29 = phi i64 [ %.0, %.lr.ph ], [ %14, %12 ]
  %.0 = add nsw i64 %.0.in29, -1
  %16 = load ptr, ptr %10, align 8, !tbaa !9
  %17 = getelementptr inbounds nuw ptr, ptr %16, i64 %.0
  %18 = load ptr, ptr %17, align 8, !tbaa !24
  tail call void @free(ptr noundef %18) #13
  %19 = load ptr, ptr %10, align 8, !tbaa !9
  %20 = getelementptr inbounds nuw ptr, ptr %19, i64 %.0
  store ptr null, ptr %20, align 8, !tbaa !24
  %21 = icmp samesign ugt i64 %.0.in29, 1
  br i1 %21, label %.lr.ph, label %._crit_edge.loopexit, !llvm.loop !31

._crit_edge.loopexit:                             ; preds = %.lr.ph
  %.pre = load ptr, ptr %10, align 8, !tbaa !9
  br label %._crit_edge

._crit_edge:                                      ; preds = %._crit_edge.loopexit, %12
  %22 = phi ptr [ %.pre, %._crit_edge.loopexit ], [ %11, %12 ]
  tail call void @free(ptr noundef %22) #13
  store ptr null, ptr %10, align 8, !tbaa !9
  %.pre34 = load i64, ptr %3, align 8, !tbaa !17
  br label %23

23:                                               ; preds = %.lr.ph31, %9, %._crit_edge
  %24 = phi i64 [ %5, %.lr.ph31 ], [ %5, %9 ], [ %.pre34, %._crit_edge ]
  %25 = add nuw i64 %.02630, 1
  %26 = icmp ult i64 %25, %24
  br i1 %26, label %.lr.ph31, label %._crit_edge32, !llvm.loop !32

._crit_edge32:                                    ; preds = %23, %.preheader
  %27 = getelementptr inbounds nuw i8, ptr %2, i64 4816
  %28 = load ptr, ptr %27, align 8, !tbaa !14
  tail call void @free(ptr noundef %28) #13
  tail call void @free(ptr noundef nonnull %2) #13
  store ptr null, ptr %0, align 8, !tbaa !4
  br label %29

29:                                               ; preds = %1, %._crit_edge32
  ret void
}